target datalayout = "e-m:e-p270:32:32-p271:32:32-p272:64:64-i64:64-i128:128-f80:128-n8:16:32:64-S128"
target triple = "x86_64-pc-linux-gnu"

%struct.DdManager = type { %struct.DdNode, ptr, ptr, ptr, ptr, ptr, ptr, ptr, i32, i32, double, double, double, i32, i32, i32, i32, i32, i32, ptr, ptr, %struct.DdSubtable, i32, i32, i32, i32, i32, i32, i32, double, i32, i32, i32, ptr, i64, double, i32, ptr, ptr, ptr, ptr, ptr, ptr, ptr, i32, ptr, ptr, ptr, ptr, ptr, ptr, i32, i32, i32, double, i32, i32, i32, i32, double, double, i32, i32, i32, i32, i32, i32, i32, i32, i32, ptr, ptr, i32, i32, i32, i32, i32, i32, ptr, ptr, ptr, ptr, ptr, ptr, ptr, ptr, i32, i64, i64, i64, i32, i64, i64, double, double, double, double, double, double, i32, ptr, ptr, i64 }
%struct.DdNode = type { i32, i32, ptr, %union.anon, i64 }
%union.anon = type { %struct.DdChildren }
%struct.DdChildren = type { ptr, ptr }
%struct.DdSubtable = type { ptr, i32, i32, i32, i32, i32, i32, i32, i32, i32, i32, i32 }

; Function Attrs: nounwind uwtable
define i32 @Cudd_bddSetPairIndex(ptr noundef %0, i32 noundef %1, i32 noundef %2) #0 {
  %4 = alloca i32, align 4
  %5 = alloca ptr, align 8
  %6 = alloca i32, align 4
  %7 = alloca i32, align 4
  store ptr %0, ptr %5, align 8
  store i32 %1, ptr %6, align 4
  store i32 %2, ptr %7, align 4
  %8 = load i32, ptr %6, align 4
  %9 = load ptr, ptr %5, align 8
  %10 = getelementptr inbounds %struct.DdManager, ptr %9, i32 0, i32 15
  %11 = load i32, ptr %10, align 8
  %12 = icmp sge i32 %8, %11
  br i1 %12, label %16, label %13

13:                                               ; preds = %3
  %14 = load i32, ptr %6, align 4
  %15 = icmp slt i32 %14, 0
  br i1 %15, label %16, label %17

16:                                               ; preds = %13, %3
  store i32 0, ptr %4, align 4
  br label %32

17:                                               ; preds = %13
  %18 = load i32, ptr %7, align 4
  %19 = load ptr, ptr %5, align 8
  %20 = getelementptr inbounds %struct.DdManager, ptr %19, i32 0, i32 19
  %21 = load ptr, ptr %20, align 8
  %22 = load ptr, ptr %5, align 8
  %23 = getelementptr inbounds %struct.DdManager, ptr %22, i32 0, i32 37
  %24 = load ptr, ptr %23, align 8
  %25 = load i32, ptr %6, align 4
  %26 = sext i32 %25 to i64
  %27 = getelementptr inbounds i32, ptr %24, i64 %26
  %28 = load i32, ptr %27, align 4
  %29 = sext i32 %28 to i64
  %30 = getelementptr inbounds %struct.DdSubtable, ptr %21, i64 %29
  %31 = getelementptr inbounds %struct.DdSubtable, ptr %30, i32 0, i32 9
  store i32 %18, ptr %31, align 8
  store i32 1, ptr %4, align 4
  br label %32

32:                                               ; preds = %17, %16
  %33 = load i32, ptr %4, align 4
  ret i32 %33
}