; Function Attrs: mustprogress nofree norecurse nosync nounwind willreturn memory(readwrite, inaccessiblemem: none) uwtable
define range(i32 0, 2) i32 @Cudd_bddSetPairIndex(ptr noundef readonly captures(none) %0, i32 noundef %1, i32 noundef %2) local_unnamed_addr #18 {
  %4 = getelementptr inbounds nuw i8, ptr %0, i64 136
  %5 = load i32, ptr %4, align 8
  %6 = icmp sge i32 %1, %5
  %7 = icmp slt i32 %1, 0
  %or.cond = or i1 %7, %6
  br i1 %or.cond, label %18, label %8

8:                                                ; preds = %3
  %9 = getelementptr inbounds nuw i8, ptr %0, i64 152
  %10 = load ptr, ptr %9, align 8
  %11 = getelementptr inbounds nuw i8, ptr %0, i64 312
  %12 = load ptr, ptr %11, align 8
  %13 = zext nneg i32 %1 to i64
  %14 = getelementptr inbounds nuw i32, ptr %12, i64 %13
  %15 = load i32, ptr %14, align 4
  %16 = sext i32 %15 to i64
  %17 = getelementptr inbounds %struct.DdSubtable, ptr %10, i64 %16, i32 9
  store i32 %2, ptr %17, align 8
  br label %18

18:                                               ; preds = %3, %8
  %.0 = phi i32 [ 1, %8 ], [ 0, %3 ]
  ret i32 %.0
}